target datalayout = "e-m:e-p270:32:32-p271:32:32-p272:64:64-i64:64-i128:128-f80:128-n8:16:32:64-S128"
target triple = "x86_64-pc-linux-gnu"

%struct.RBasic = type { i64, i64 }
%struct.rb_iseq_struct = type { i64, i64, ptr, %union.anon.13 }
%union.anon.13 = type { %struct.anon.14 }
%struct.anon.14 = type { i64, i32 }
%struct.rb_iseq_constant_body = type { i32, i32, ptr, %struct.anon.16, %struct.rb_iseq_location_struct, %struct.iseq_insn_info, ptr, ptr, ptr, ptr, ptr, ptr, %struct.anon.17, i32, i32, i32, i32, i32, i32, i32, i32, i8, %union.anon.18, ptr, ptr, ptr, i64, ptr, i64, ptr, i64 }
%struct.anon.16 = type { %struct.anon, i32, i32, i32, i32, i32, i32, i32, ptr, ptr }
%struct.anon = type { i16, [2 x i8] }
%struct.rb_iseq_location_struct = type { i64, i64, i64, i32, i32, %struct.rb_code_location_struct }
%struct.rb_code_location_struct = type { %struct.rb_code_position_struct, %struct.rb_code_position_struct }
%struct.rb_code_position_struct = type { i32, i32 }
%struct.iseq_insn_info = type { ptr, ptr, i32, ptr }
%struct.anon.17 = type { i64, i64, i64, i64, ptr }
%union.anon.18 = type { ptr }

@.str.12 = private unnamed_addr constant [10 x i8] c"../yjit.c\00", align 1
@.str.16 = private unnamed_addr constant [31 x i8] c"IMEMO_TYPE_P(iseq, imemo_iseq)\00", align 1
@__func__.rb_iseq_pc_at_idx = private unnamed_addr constant [18 x i8] c"rb_iseq_pc_at_idx\00", align 1
@.str.19 = private unnamed_addr constant [33 x i8] c"insn_idx < iseq->body->iseq_size\00", align 1

; Function Attrs: inlinehint nounwind sspstrong willreturn memory(none) uwtable
define internal zeroext i1 @RB_IMMEDIATE_P(i64 noundef %0) #18 {
  %2 = alloca i64, align 8
  store i64 %0, ptr %2, align 8, !tbaa !13
  %3 = load i64, ptr %2, align 8, !tbaa !13
  %4 = and i64 %3, 7
  %5 = icmp ne i64 %4, 0
  ret i1 %5
}

; Function Attrs: inlinehint nounwind sspstrong willreturn memory(none) uwtable
define internal zeroext i1 @RB_SPECIAL_CONST_P(i64 noundef %0) #18 {
  %2 = alloca i64, align 8
  store i64 %0, ptr %2, align 8, !tbaa !13
  %3 = load i64, ptr %2, align 8, !tbaa !13
  %4 = icmp eq i64 %3, 0
  br i1 %4, label %8, label %5

5:                                                ; preds = %1
  %6 = load i64, ptr %2, align 8, !tbaa !13
  %7 = call zeroext i1 @RB_IMMEDIATE_P(i64 noundef %6) #27
  br label %8

8:                                                ; preds = %5, %1
  %9 = phi i1 [ true, %1 ], [ %7, %5 ]
  ret i1 %9
}

; Function Attrs: inlinehint nounwind sspstrong uwtable
define internal i32 @imemo_type_p(i64 noundef %0, i32 noundef %1) #7 {
  %3 = alloca i32, align 4
  %4 = alloca i64, align 8
  %5 = alloca i32, align 4
  %6 = alloca i64, align 8
  %7 = alloca i64, align 8
  store i64 %0, ptr %4, align 8, !tbaa !13
  store i32 %1, ptr %5, align 4, !tbaa !11
  %8 = load i64, ptr %4, align 8, !tbaa !13
  %9 = call zeroext i1 @RB_SPECIAL_CONST_P(i64 noundef %8) #27
  %10 = xor i1 %9, true
  %11 = xor i1 %10, true
  %12 = xor i1 %11, true
  %13 = zext i1 %12 to i32
  %14 = sext i32 %13 to i64
  %15 = call i64 @llvm.expect.i64(i64 %14, i64 1)
  %16 = icmp ne i64 %15, 0
  br i1 %16, label %17, label %30

17:                                               ; preds = %2
  call void @llvm.lifetime.start.p0(i64 8, ptr %6) #5
  store i64 61471, ptr %6, align 8, !tbaa !13
  call void @llvm.lifetime.start.p0(i64 8, ptr %7) #5
  %18 = load i32, ptr %5, align 4, !tbaa !11
  %19 = shl i32 %18, 12
  %20 = or i32 %19, 26
  %21 = zext i32 %20 to i64
  store i64 %21, ptr %7, align 8, !tbaa !13
  %22 = load i64, ptr %7, align 8, !tbaa !13
  %23 = load i64, ptr %4, align 8, !tbaa !13
  %24 = inttoptr i64 %23 to ptr
  %25 = getelementptr inbounds nuw %struct.RBasic, ptr %24, i32 0, i32 0
  %26 = load i64, ptr %25, align 8, !tbaa !107
  %27 = and i64 %26, 61471
  %28 = icmp eq i64 %22, %27
  %29 = zext i1 %28 to i32
  store i32 %29, ptr %3, align 4
  call void @llvm.lifetime.end.p0(i64 8, ptr %7) #5
  call void @llvm.lifetime.end.p0(i64 8, ptr %6) #5
  br label %31

30:                                               ; preds = %2
  store i32 0, ptr %3, align 4
  br label %31

31:                                               ; preds = %30, %17
  %32 = load i32, ptr %3, align 4
  ret i32 %32
}

; Function Attrs: nounwind sspstrong uwtable
define hidden ptr @rb_iseq_pc_at_idx(ptr noundef %0, i32 noundef %1) #0 {
  %3 = alloca ptr, align 8
  %4 = alloca i32, align 4
  %5 = alloca ptr, align 8
  %6 = alloca ptr, align 8
  store ptr %0, ptr %3, align 8, !tbaa !87
  store i32 %1, ptr %4, align 4, !tbaa !11
  %7 = load ptr, ptr %3, align 8, !tbaa !87
  %8 = ptrtoint ptr %7 to i64
  %9 = call i32 @imemo_type_p(i64 noundef %8, i32 noundef 7)
  %10 = icmp ne i32 %9, 0
  %11 = xor i1 %10, true
  %12 = xor i1 %11, true
  %13 = zext i1 %12 to i32
  %14 = sext i32 %13 to i64
  %15 = call i64 @llvm.expect.i64(i64 %14, i64 1)
  %16 = icmp ne i64 %15, 0
  br i1 %16, label %17, label %18

17:                                               ; preds = %2
  br label %20

18:                                               ; preds = %2
  call void @rb_assert_failure(ptr noundef @.str.12, i32 noundef 444, ptr noundef @__func__.rb_iseq_pc_at_idx, ptr noundef @.str.16) #24
  unreachable

19:                                               ; No predecessors!
  br label %20

20:                                               ; preds = %19, %17
  %21 = load i32, ptr %4, align 4, !tbaa !11
  %22 = load ptr, ptr %3, align 8, !tbaa !87
  %23 = getelementptr inbounds nuw %struct.rb_iseq_struct, ptr %22, i32 0, i32 2
  %24 = load ptr, ptr %23, align 8, !tbaa !88
  %25 = getelementptr inbounds nuw %struct.rb_iseq_constant_body, ptr %24, i32 0, i32 1
  %26 = load i32, ptr %25, align 4, !tbaa !91
  %27 = icmp ult i32 %21, %26
  %28 = xor i1 %27, true
  %29 = xor i1 %28, true
  %30 = zext i1 %29 to i32
  %31 = sext i32 %30 to i64
  %32 = call i64 @llvm.expect.i64(i64 %31, i64 1)
  %33 = icmp ne i64 %32, 0
  br i1 %33, label %34, label %35

34:                                               ; preds = %20
  br label %37

35:                                               ; preds = %20
  call void @rb_assert_failure(ptr noundef @.str.12, i32 noundef 445, ptr noundef @__func__.rb_iseq_pc_at_idx, ptr noundef @.str.19) #24
  unreachable

36:                                               ; No predecessors!
  br label %37

37:                                               ; preds = %36, %34
  call void @llvm.lifetime.start.p0(i64 8, ptr %5) #5
  %38 = load ptr, ptr %3, align 8, !tbaa !87
  %39 = getelementptr inbounds nuw %struct.rb_iseq_struct, ptr %38, i32 0, i32 2
  %40 = load ptr, ptr %39, align 8, !tbaa !88
  %41 = getelementptr inbounds nuw %struct.rb_iseq_constant_body, ptr %40, i32 0, i32 2
  %42 = load ptr, ptr %41, align 8, !tbaa !113
  store ptr %42, ptr %5, align 8, !tbaa !16
  call void @llvm.lifetime.start.p0(i64 8, ptr %6) #5
  %43 = load ptr, ptr %5, align 8, !tbaa !16
  %44 = load i32, ptr %4, align 4, !tbaa !11
  %45 = zext i32 %44 to i64
  %46 = getelementptr i64, ptr %43, i64 %45
  store ptr %46, ptr %6, align 8, !tbaa !16
  %47 = load ptr, ptr %6, align 8, !tbaa !16
  call void @llvm.lifetime.end.p0(i64 8, ptr %6) #5
  call void @llvm.lifetime.end.p0(i64 8, ptr %5) #5
  ret ptr %47
}