; Function Attrs: nounwind sspstrong uwtable
define hidden ptr @rb_iseq_pc_at_idx(ptr noundef %0, i32 noundef %1) local_unnamed_addr #0 {
  %3 = ptrtoint ptr %0 to i64
  %4 = icmp eq ptr %0, null
  %5 = and i64 %3, 7
  %6 = icmp ne i64 %5, 0
  %7 = or i1 %4, %6
  br i1 %7, label %imemo_type_p.exit.thread, label %imemo_type_p.exit, !prof !113

imemo_type_p.exit:                                ; preds = %2
  %8 = load i64, ptr %0, align 8, !tbaa !11
  %9 = and i64 %8, 61471
  %.not = icmp eq i64 %9, 28698
  br i1 %.not, label %10, label %imemo_type_p.exit.thread, !prof !114

imemo_type_p.exit.thread:                         ; preds = %2, %imemo_type_p.exit
  tail call void @rb_assert_failure(ptr noundef nonnull @.str.12, i32 noundef 444, ptr noundef nonnull @__func__.rb_iseq_pc_at_idx, ptr noundef nonnull @.str.16) #24
  unreachable

10:                                               ; preds = %imemo_type_p.exit
  %11 = getelementptr inbounds nuw i8, ptr %0, i64 16
  %12 = load ptr, ptr %11, align 8, !tbaa !94
  %13 = getelementptr inbounds nuw i8, ptr %12, i64 4
  %14 = load i32, ptr %13, align 4, !tbaa !97
  %15 = icmp ult i32 %1, %14
  br i1 %15, label %17, label %16, !prof !55

16:                                               ; preds = %10
  tail call void @rb_assert_failure(ptr noundef nonnull @.str.12, i32 noundef 445, ptr noundef nonnull @__func__.rb_iseq_pc_at_idx, ptr noundef nonnull @.str.19) #24
  unreachable

17:                                               ; preds = %10
  %18 = getelementptr inbounds nuw i8, ptr %12, i64 8
  %19 = load ptr, ptr %18, align 8, !tbaa !116
  %20 = zext i32 %1 to i64
  %21 = getelementptr i64, ptr %19, i64 %20
  ret ptr %21
}